target datalayout = "e-m:e-p270:32:32-p271:32:32-p272:64:64-i64:64-i128:128-f80:128-n8:16:32:64-S128"
target triple = "x86_64-pc-linux-gnu"

%struct._cmsStage_struct = type { ptr, i32, i32, i32, i32, ptr, ptr, ptr, ptr, ptr }
%struct._cmsStageCLutData = type { %union.anon, ptr, i32, i32 }
%union.anon = type { ptr }
%struct._cms_interp_struc = type { ptr, i32, i32, i32, [15 x i32], [15 x i32], [15 x i32], ptr, %union.cmsInterpFunction }
%union.cmsInterpFunction = type { ptr }
%struct._cmsPipeline_struct = type { ptr, i32, i32, ptr, ptr, ptr, ptr, ptr, ptr, i32 }

; Function Attrs: nounwind uwtable
define internal void @ChangeInterpolationToTrilinear(ptr noundef %0) #0 {
  %2 = alloca ptr, align 8
  %3 = alloca ptr, align 8
  %4 = alloca ptr, align 8
  store ptr %0, ptr %2, align 8
  %5 = load ptr, ptr %2, align 8
  %6 = call ptr @cmsPipelineGetPtrToFirstStage(ptr noundef %5)
  store ptr %6, ptr %3, align 8
  br label %7

7:                                                ; preds = %32, %1
  %8 = load ptr, ptr %3, align 8
  %9 = icmp ne ptr %8, null
  br i1 %9, label %10, label %35

10:                                               ; preds = %7
  %11 = load ptr, ptr %3, align 8
  %12 = call i32 @cmsStageType(ptr noundef %11)
  %13 = icmp eq i32 %12, 1668052340
  br i1 %13, label %14, label %31

14:                                               ; preds = %10
  %15 = load ptr, ptr %3, align 8
  %16 = getelementptr inbounds %struct._cmsStage_struct, ptr %15, i32 0, i32 8
  %17 = load ptr, ptr %16, align 8
  store ptr %17, ptr %4, align 8
  %18 = load ptr, ptr %4, align 8
  %19 = getelementptr inbounds %struct._cmsStageCLutData, ptr %18, i32 0, i32 1
  %20 = load ptr, ptr %19, align 8
  %21 = getelementptr inbounds %struct._cms_interp_struc, ptr %20, i32 0, i32 1
  %22 = load i32, ptr %21, align 8
  %23 = or i32 %22, 256
  store i32 %23, ptr %21, align 8
  %24 = load ptr, ptr %2, align 8
  %25 = getelementptr inbounds %struct._cmsPipeline_struct, ptr %24, i32 0, i32 8
  %26 = load ptr, ptr %25, align 8
  %27 = load ptr, ptr %4, align 8
  %28 = getelementptr inbounds %struct._cmsStageCLutData, ptr %27, i32 0, i32 1
  %29 = load ptr, ptr %28, align 8
  %30 = call i32 @_cmsSetInterpolationRoutine(ptr noundef %26, ptr noundef %29)
  br label %31

31:                                               ; preds = %14, %10
  br label %32

32:                                               ; preds = %31
  %33 = load ptr, ptr %3, align 8
  %34 = call ptr @cmsStageNext(ptr noundef %33)
  store ptr %34, ptr %3, align 8
  br label %7, !llvm.loop !9

35:                                               ; preds = %7
  ret void
}