; Function Attrs: nounwind uwtable
define internal fastcc void @ChangeInterpolationToTrilinear(ptr noundef %0) unnamed_addr #0 {
  %2 = tail call ptr @cmsPipelineGetPtrToFirstStage(ptr noundef %0) #4
  %.not8 = icmp eq ptr %2, null
  br i1 %.not8, label %._crit_edge, label %.lr.ph

.lr.ph:                                           ; preds = %1
  %3 = getelementptr inbounds i8, ptr %0, i64 56
  br label %4

4:                                                ; preds = %.lr.ph, %18
  %.09 = phi ptr [ %2, %.lr.ph ], [ %19, %18 ]
  %5 = tail call i32 @cmsStageType(ptr noundef nonnull %.09) #4
  %6 = icmp eq i32 %5, 1668052340
  br i1 %6, label %7, label %18

7:                                                ; preds = %4
  %8 = getelementptr inbounds i8, ptr %.09, i64 48
  %9 = load ptr, ptr %8, align 8
  %10 = getelementptr inbounds i8, ptr %9, i64 8
  %11 = load ptr, ptr %10, align 8
  %12 = getelementptr inbounds i8, ptr %11, i64 8
  %13 = load i32, ptr %12, align 8
  %14 = or i32 %13, 256
  store i32 %14, ptr %12, align 8
  %15 = load ptr, ptr %3, align 8
  %16 = load ptr, ptr %10, align 8
  %17 = tail call i32 @_cmsSetInterpolationRoutine(ptr noundef %15, ptr noundef %16) #4
  br label %18

18:                                               ; preds = %4, %7
  %19 = tail call ptr @cmsStageNext(ptr noundef nonnull %.09) #4
  %.not = icmp eq ptr %19, null
  br i1 %.not, label %._crit_edge, label %4, !llvm.loop !9

._crit_edge:                                      ; preds = %18, %1
  ret void
}